target datalayout = "e-m:e-p270:32:32-p271:32:32-p272:64:64-i64:64-i128:128-f80:128-n8:16:32:64-S128"
target triple = "x86_64-pc-linux-gnu"

%struct.IndexScanState = type { %struct.ScanState, ptr, ptr, ptr, i32, ptr, i32, ptr, i32, i8, ptr, ptr, ptr, ptr, i8, ptr, ptr, ptr, ptr, ptr, i64 }
%struct.ScanState = type { %struct.PlanState, ptr, ptr, ptr }
%struct.PlanState = type { i32, ptr, ptr, ptr, ptr, ptr, ptr, ptr, ptr, ptr, ptr, ptr, ptr, ptr, ptr, ptr, ptr, ptr, i8, ptr, ptr, ptr, ptr, ptr, i8, i8, i8, i8, i8, i8, i8, i8 }

; Function Attrs: nounwind uwtable
define internal ptr @ExecIndexScan(ptr noundef %0) #0 {
  %2 = alloca ptr, align 8
  %3 = alloca ptr, align 8
  %4 = alloca ptr, align 8
  %5 = alloca i32, align 4
  store ptr %0, ptr %3, align 8
  call void @llvm.lifetime.start.p0(i64 8, ptr %4) #7
  %6 = load ptr, ptr %3, align 8
  store ptr %6, ptr %4, align 8
  %7 = load ptr, ptr %4, align 8
  %8 = getelementptr inbounds nuw %struct.IndexScanState, ptr %7, i32 0, i32 8
  %9 = load i32, ptr %8, align 8
  %10 = icmp ne i32 %9, 0
  br i1 %10, label %11, label %18

11:                                               ; preds = %1
  %12 = load ptr, ptr %4, align 8
  %13 = getelementptr inbounds nuw %struct.IndexScanState, ptr %12, i32 0, i32 9
  %14 = load i8, ptr %13, align 4, !range !6, !noundef !7
  %15 = trunc i8 %14 to i1
  br i1 %15, label %18, label %16

16:                                               ; preds = %11
  %17 = load ptr, ptr %4, align 8
  call void @ExecReScan(ptr noundef %17)
  br label %18

18:                                               ; preds = %16, %11, %1
  %19 = load ptr, ptr %4, align 8
  %20 = getelementptr inbounds nuw %struct.IndexScanState, ptr %19, i32 0, i32 6
  %21 = load i32, ptr %20, align 8
  %22 = icmp sgt i32 %21, 0
  br i1 %22, label %23, label %27

23:                                               ; preds = %18
  %24 = load ptr, ptr %4, align 8
  %25 = getelementptr inbounds nuw %struct.IndexScanState, ptr %24, i32 0, i32 0
  %26 = call ptr @ExecScan(ptr noundef %25, ptr noundef @IndexNextWithReorder, ptr noundef @IndexRecheck)
  store ptr %26, ptr %2, align 8
  store i32 1, ptr %5, align 4
  br label %31

27:                                               ; preds = %18
  %28 = load ptr, ptr %4, align 8
  %29 = getelementptr inbounds nuw %struct.IndexScanState, ptr %28, i32 0, i32 0
  %30 = call ptr @ExecScan(ptr noundef %29, ptr noundef @IndexNext, ptr noundef @IndexRecheck)
  store ptr %30, ptr %2, align 8
  store i32 1, ptr %5, align 4
  br label %31

31:                                               ; preds = %27, %23
  call void @llvm.lifetime.end.p0(i64 8, ptr %4) #7
  %32 = load ptr, ptr %2, align 8
  ret ptr %32
}