; Function Attrs: nounwind uwtable
define internal ptr @ExecIndexScan(ptr noundef %0) #0 {
  %2 = getelementptr inbounds nuw i8, ptr %0, i64 280
  %3 = load i32, ptr %2, align 8
  %.not = icmp eq i32 %3, 0
  br i1 %.not, label %9, label %4

4:                                                ; preds = %1
  %5 = getelementptr inbounds nuw i8, ptr %0, i64 284
  %6 = load i8, ptr %5, align 4, !range !4, !noundef !5
  %7 = trunc nuw i8 %6 to i1
  br i1 %7, label %9, label %8

8:                                                ; preds = %4
  tail call void @ExecReScan(ptr noundef nonnull %0) #7
  br label %9

9:                                                ; preds = %8, %4, %1
  %10 = getelementptr inbounds nuw i8, ptr %0, i64 264
  %11 = load i32, ptr %10, align 8
  %12 = icmp sgt i32 %11, 0
  %IndexNextWithReorder.IndexNext = select i1 %12, ptr @IndexNextWithReorder, ptr @IndexNext
  %13 = tail call ptr @ExecScan(ptr noundef nonnull %0, ptr noundef nonnull %IndexNextWithReorder.IndexNext, ptr noundef nonnull @IndexRecheck) #7
  ret ptr %13
}